target datalayout = "e-m:e-p270:32:32-p271:32:32-p272:64:64-i64:64-i128:128-f80:128-n8:16:32:64-S128"
target triple = "x86_64-unknown-linux-gnu"

%"class.base::BasicStringPiece" = type { ptr, i64 }

@_ZN3net12_GLOBAL__N_110kSetHashesE = internal constant [2 x i64] [i64 -1721902750133786623, i64 -7961777403452134018], align 16

; Function Attrs: mustprogress uwtable
define internal { ptr, i64 } @_ZNK3net12_GLOBAL__N_118CommonCertSetsQUIC15GetCommonHashesB5cxx11Ev(ptr noundef nonnull align 8 dereferenceable(8) %this) unnamed_addr #2 align 2 {
entry:
  %retval = alloca %"class.base::BasicStringPiece", align 8
  %this.addr = alloca ptr, align 8
  store ptr %this, ptr %this.addr, align 8
  call void @_ZN4base16BasicStringPieceINSt7__cxx1112basic_stringIcSt11char_traitsIcESaIcEEEEC1EPKcm(ptr noundef nonnull align 8 dereferenceable(16) %retval, ptr noundef @_ZN3net12_GLOBAL__N_110kSetHashesE, i64 noundef 16)
  %0 = load { ptr, i64 }, ptr %retval, align 8
  ret { ptr, i64 } %0
}